target datalayout = "e-m:e-p270:32:32-p271:32:32-p272:64:64-i64:64-i128:128-f80:128-n8:16:32:64-S128"
target triple = "x86_64-pc-linux-gnu"

; Function Attrs: mustprogress nounwind uwtable
define i32 @LZ4_compressBound(i32 noundef %0) #0 {
  %2 = alloca i32, align 4
  store i32 %0, ptr %2, align 4, !tbaa !6
  %3 = load i32, ptr %2, align 4, !tbaa !6
  %4 = icmp ugt i32 %3, 2113929216
  br i1 %4, label %5, label %6

5:                                                ; preds = %1
  br label %12

6:                                                ; preds = %1
  %7 = load i32, ptr %2, align 4, !tbaa !6
  %8 = load i32, ptr %2, align 4, !tbaa !6
  %9 = sdiv i32 %8, 255
  %10 = add nsw i32 %7, %9
  %11 = add nsw i32 %10, 16
  br label %12

12:                                               ; preds = %6, %5
  %13 = phi i32 [ 0, %5 ], [ %11, %6 ]
  ret i32 %13
}

; Function Attrs: mustprogress uwtable
define i32 @LZ4_compress_withState(ptr noundef %0, ptr noundef %1, ptr noundef %2, i32 noundef %3) #1 {
  %5 = alloca ptr, align 8
  %6 = alloca ptr, align 8
  %7 = alloca ptr, align 8
  %8 = alloca i32, align 4
  store ptr %0, ptr %5, align 8, !tbaa !10
  store ptr %1, ptr %6, align 8, !tbaa !12
  store ptr %2, ptr %7, align 8, !tbaa !12
  store i32 %3, ptr %8, align 4, !tbaa !6
  %9 = load ptr, ptr %5, align 8, !tbaa !10
  %10 = load ptr, ptr %6, align 8, !tbaa !12
  %11 = load ptr, ptr %7, align 8, !tbaa !12
  %12 = load i32, ptr %8, align 4, !tbaa !6
  %13 = load i32, ptr %8, align 4, !tbaa !6
  %14 = call i32 @LZ4_compressBound(i32 noundef %13)
  %15 = call i32 @LZ4_compress_fast_extState(ptr noundef %9, ptr noundef %10, ptr noundef %11, i32 noundef %12, i32 noundef %14, i32 noundef 1)
  ret i32 %15
}